target datalayout = "e-m:e-p270:32:32-p271:32:32-p272:64:64-i64:64-i128:128-f80:128-n8:16:32:64-S128"
target triple = "x86_64-pc-linux-gnu"

%struct.DecodedFrames = type { ptr, i64, i64 }
%struct.AVCodecContext = type { ptr, i32, i32, ptr, i32, i32, ptr, ptr, ptr, i64, i32, i32, ptr, i32, %struct.AVRational, %struct.AVRational, %struct.AVRational, i32, i32, i32, i32, i32, %struct.AVRational, i32, i32, i32, i32, i32, i32, i32, i32, i32, i32, i32, ptr, ptr, i32, float, float, float, float, float, float, float, float, float, i32, i32, i32, i32, i32, i32, i32, i32, i32, i32, i32, i32, ptr, ptr, ptr, i32, i32, i32, i32, i32, i32, i32, i32, i32, i32, %struct.AVChannelLayout, i32, i32, i32, i32, i32, i32, i32, i32, ptr, i32, i32, i32, float, float, i32, i32, i32, i32, i32, ptr, i64, i64, float, float, i32, i32, ptr, ptr, i32, i32, i32, i32, i32, ptr, ptr, ptr, ptr, i32, i32, [8 x i64], i32, i32, i32, i32, i32, i32, i32, ptr, ptr, i32, i32, i32, i32, i32, i32, i32, i32, i32, i32, ptr, ptr, i32, i32, ptr, ptr, ptr, ptr, i32, i32, i64, i32, i32, i64, ptr, i64, ptr, i32, ptr, i32 }
%struct.AVRational = type { i32, i32 }
%struct.AVChannelLayout = type { i32, i32, %union.anon, ptr }
%union.anon = type { i64 }
%struct.AVCodecInternal = type { i32, i32, i32, ptr, ptr, ptr, ptr, ptr, ptr, ptr, i32, ptr, ptr, ptr, i32, i32, ptr, i32, ptr, ptr, i32, i32 }
%struct.FrameThreadContext = type { ptr, ptr, i32, %union.pthread_mutex_t, %union.pthread_mutex_t, %union.pthread_mutex_t, %union.pthread_cond_t, i32, %struct.DecodedFrames, i32, ptr, i32, i32, ptr, ptr, ptr }
%union.pthread_mutex_t = type { %struct.__pthread_mutex_s }
%struct.__pthread_mutex_s = type { i32, i32, i32, i32, i32, i16, i16, %struct.__pthread_internal_list }
%struct.__pthread_internal_list = type { ptr, ptr }
%union.pthread_cond_t = type { %struct.__pthread_cond_s }
%struct.__pthread_cond_s = type { %union.__atomic_wide_counter, %union.__atomic_wide_counter, [2 x i32], [2 x i32], i32, i32, [2 x i32] }
%union.__atomic_wide_counter = type { i64 }
%struct.PerThreadContext = type { ptr, i64, i32, i32, %union.pthread_cond_t, %union.pthread_cond_t, %union.pthread_cond_t, %union.pthread_mutex_t, %union.pthread_mutex_t, ptr, ptr, %struct.DecodedFrames, i32, i32, i32, i32, i32, i32, i32, i32, i32 }
%struct.AVCodec = type { ptr, ptr, i32, i32, i32, i8, ptr, ptr, ptr, ptr, ptr, ptr, ptr, ptr }
%struct.FFCodec = type { %struct.AVCodec, i32, i32, ptr, ptr, ptr, ptr, %union.anon.0, ptr, ptr, ptr, ptr, ptr, ptr }
%union.anon.0 = type { ptr }

@.str.7 = private unnamed_addr constant [28 x i8] c"thread_get_buffer() failed\0A\00", align 1
@.str.18 = private unnamed_addr constant [62 x i8] c"get_buffer() cannot be called after ff_thread_finish_setup()\0A\00", align 1

; Function Attrs: alwaysinline nounwind uwtable
define internal ptr @ffcodec(ptr noundef %0) #8 {
  %2 = alloca ptr, align 8
  store ptr %0, ptr %2, align 8, !tbaa !68
  %3 = load ptr, ptr %2, align 8, !tbaa !68
  ret ptr %3
}

; Function Attrs: nounwind uwtable
define internal i32 @thread_get_buffer_internal(ptr noundef %0, ptr noundef %1, i32 noundef %2) #0 {
  %4 = alloca i32, align 4
  %5 = alloca ptr, align 8
  %6 = alloca ptr, align 8
  %7 = alloca i32, align 4
  %8 = alloca ptr, align 8
  %9 = alloca i32, align 4
  %10 = alloca i32, align 4
  %11 = alloca i32, align 4
  store ptr %0, ptr %5, align 8, !tbaa !4
  store ptr %1, ptr %6, align 8, !tbaa !9
  store i32 %2, ptr %7, align 4, !tbaa !39
  call void @llvm.lifetime.start.p0(i64 8, ptr %8) #9
  call void @llvm.lifetime.start.p0(i64 4, ptr %9) #9
  %12 = load ptr, ptr %5, align 8, !tbaa !4
  %13 = getelementptr inbounds nuw %struct.AVCodecContext, ptr %12, i32 0, i32 118
  %14 = load i32, ptr %13, align 8, !tbaa !140
  %15 = and i32 %14, 1
  %16 = icmp ne i32 %15, 0
  br i1 %16, label %22, label %17

17:                                               ; preds = %3
  %18 = load ptr, ptr %5, align 8, !tbaa !4
  %19 = load ptr, ptr %6, align 8, !tbaa !9
  %20 = load i32, ptr %7, align 4, !tbaa !39
  %21 = call i32 @ff_get_buffer(ptr noundef %18, ptr noundef %19, i32 noundef %20)
  store i32 %21, ptr %4, align 4
  store i32 1, ptr %10, align 4
  br label %59

22:                                               ; preds = %3
  %23 = load ptr, ptr %5, align 8, !tbaa !4
  %24 = getelementptr inbounds nuw %struct.AVCodecContext, ptr %23, i32 0, i32 7
  %25 = load ptr, ptr %24, align 8, !tbaa !11
  %26 = getelementptr inbounds nuw %struct.AVCodecInternal, ptr %25, i32 0, i32 5
  %27 = load ptr, ptr %26, align 8, !tbaa !31
  store ptr %27, ptr %8, align 8, !tbaa !53
  %28 = load ptr, ptr %8, align 8, !tbaa !53
  %29 = getelementptr inbounds nuw %struct.PerThreadContext, ptr %28, i32 0, i32 13
  %30 = load atomic i32, ptr %29 seq_cst, align 4
  store i32 %30, ptr %11, align 4
  %31 = load i32, ptr %11, align 4, !tbaa !39
  %32 = icmp ne i32 %31, 1
  br i1 %32, label %33, label %43

33:                                               ; preds = %22
  %34 = load ptr, ptr %5, align 8, !tbaa !4
  %35 = getelementptr inbounds nuw %struct.AVCodecContext, ptr %34, i32 0, i32 3
  %36 = load ptr, ptr %35, align 8, !tbaa !67
  %37 = call ptr @ffcodec(ptr noundef %36)
  %38 = getelementptr inbounds nuw %struct.FFCodec, ptr %37, i32 0, i32 3
  %39 = load ptr, ptr %38, align 8, !tbaa !91
  %40 = icmp ne ptr %39, null
  br i1 %40, label %41, label %43

41:                                               ; preds = %33
  %42 = load ptr, ptr %5, align 8, !tbaa !4
  call void (ptr, i32, ptr, ...) @av_log(ptr noundef %42, i32 noundef 16, ptr noundef @.str.18)
  store i32 -1, ptr %4, align 4
  store i32 1, ptr %10, align 4
  br label %59

43:                                               ; preds = %33, %22
  %44 = load ptr, ptr %8, align 8, !tbaa !53
  %45 = getelementptr inbounds nuw %struct.PerThreadContext, ptr %44, i32 0, i32 0
  %46 = load ptr, ptr %45, align 8, !tbaa !65
  %47 = getelementptr inbounds nuw %struct.FrameThreadContext, ptr %46, i32 0, i32 3
  %48 = call i32 @pthread_mutex_lock(ptr noundef %47) #9
  %49 = load ptr, ptr %5, align 8, !tbaa !4
  %50 = load ptr, ptr %6, align 8, !tbaa !9
  %51 = load i32, ptr %7, align 4, !tbaa !39
  %52 = call i32 @ff_get_buffer(ptr noundef %49, ptr noundef %50, i32 noundef %51)
  store i32 %52, ptr %9, align 4, !tbaa !39
  %53 = load ptr, ptr %8, align 8, !tbaa !53
  %54 = getelementptr inbounds nuw %struct.PerThreadContext, ptr %53, i32 0, i32 0
  %55 = load ptr, ptr %54, align 8, !tbaa !65
  %56 = getelementptr inbounds nuw %struct.FrameThreadContext, ptr %55, i32 0, i32 3
  %57 = call i32 @pthread_mutex_unlock(ptr noundef %56) #9
  %58 = load i32, ptr %9, align 4, !tbaa !39
  store i32 %58, ptr %4, align 4
  store i32 1, ptr %10, align 4
  br label %59

59:                                               ; preds = %43, %41, %17
  call void @llvm.lifetime.end.p0(i64 4, ptr %9) #9
  call void @llvm.lifetime.end.p0(i64 8, ptr %8) #9
  %60 = load i32, ptr %4, align 4
  ret i32 %60
}

; Function Attrs: nounwind uwtable
define i32 @ff_thread_get_buffer(ptr noundef %0, ptr noundef %1, i32 noundef %2) #0 {
  %4 = alloca ptr, align 8
  %5 = alloca ptr, align 8
  %6 = alloca i32, align 4
  %7 = alloca i32, align 4
  store ptr %0, ptr %4, align 8, !tbaa !4
  store ptr %1, ptr %5, align 8, !tbaa !9
  store i32 %2, ptr %6, align 4, !tbaa !39
  call void @llvm.lifetime.start.p0(i64 4, ptr %7) #9
  %8 = load ptr, ptr %4, align 8, !tbaa !4
  %9 = load ptr, ptr %5, align 8, !tbaa !9
  %10 = load i32, ptr %6, align 4, !tbaa !39
  %11 = call i32 @thread_get_buffer_internal(ptr noundef %8, ptr noundef %9, i32 noundef %10)
  store i32 %11, ptr %7, align 4, !tbaa !39
  %12 = load i32, ptr %7, align 4, !tbaa !39
  %13 = icmp slt i32 %12, 0
  br i1 %13, label %14, label %16

14:                                               ; preds = %3
  %15 = load ptr, ptr %4, align 8, !tbaa !4
  call void (ptr, i32, ptr, ...) @av_log(ptr noundef %15, i32 noundef 16, ptr noundef @.str.7)
  br label %16

16:                                               ; preds = %14, %3
  %17 = load i32, ptr %7, align 4, !tbaa !39
  call void @llvm.lifetime.end.p0(i64 4, ptr %7) #9
  ret i32 %17
}