; Function Attrs: nounwind uwtable
define i32 @ff_thread_get_buffer(ptr noundef %0, ptr noundef %1, i32 noundef %2) local_unnamed_addr #0 {
  %4 = getelementptr inbounds nuw i8, ptr %0, i64 664
  %5 = load i32, ptr %4, align 8, !tbaa !136
  %6 = and i32 %5, 1
  %.not.i = icmp eq i32 %6, 0
  br i1 %.not.i, label %7, label %9

7:                                                ; preds = %3
  %8 = tail call i32 @ff_get_buffer(ptr noundef nonnull %0, ptr noundef %1, i32 noundef %2) #11
  br label %thread_get_buffer_internal.exit

9:                                                ; preds = %3
  %10 = getelementptr inbounds nuw i8, ptr %0, i64 40
  %11 = load ptr, ptr %10, align 8, !tbaa !4
  %12 = getelementptr inbounds nuw i8, ptr %11, i64 32
  %13 = load ptr, ptr %12, align 8, !tbaa !27
  %14 = getelementptr inbounds nuw i8, ptr %13, i64 292
  %15 = load atomic i32, ptr %14 seq_cst, align 4
  %.not15.i = icmp eq i32 %15, 1
  br i1 %.not15.i, label %21, label %16

16:                                               ; preds = %9
  %17 = getelementptr inbounds nuw i8, ptr %0, i64 16
  %18 = load ptr, ptr %17, align 8, !tbaa !50
  %19 = getelementptr inbounds nuw i8, ptr %18, i64 104
  %20 = load ptr, ptr %19, align 8, !tbaa !96
  %.not16.i = icmp eq ptr %20, null
  br i1 %.not16.i, label %21, label %thread_get_buffer_internal.exit.thread

thread_get_buffer_internal.exit.thread:           ; preds = %16
  tail call void (ptr, i32, ptr, ...) @av_log(ptr noundef nonnull %0, i32 noundef 16, ptr noundef nonnull @.str.18) #11
  br label %30

21:                                               ; preds = %16, %9
  %22 = load ptr, ptr %13, align 8, !tbaa !44
  %23 = getelementptr inbounds nuw i8, ptr %22, i64 24
  %24 = tail call i32 @pthread_mutex_lock(ptr noundef nonnull %23) #11
  %25 = tail call i32 @ff_get_buffer(ptr noundef nonnull %0, ptr noundef %1, i32 noundef %2) #11
  %26 = load ptr, ptr %13, align 8, !tbaa !44
  %27 = getelementptr inbounds nuw i8, ptr %26, i64 24
  %28 = tail call i32 @pthread_mutex_unlock(ptr noundef nonnull %27) #11
  br label %thread_get_buffer_internal.exit

thread_get_buffer_internal.exit:                  ; preds = %7, %21
  %.0.i = phi i32 [ %25, %21 ], [ %8, %7 ]
  %29 = icmp slt i32 %.0.i, 0
  br i1 %29, label %30, label %31

30:                                               ; preds = %thread_get_buffer_internal.exit.thread, %thread_get_buffer_internal.exit
  %.0.i7 = phi i32 [ -1, %thread_get_buffer_internal.exit.thread ], [ %.0.i, %thread_get_buffer_internal.exit ]
  tail call void (ptr, i32, ptr, ...) @av_log(ptr noundef nonnull %0, i32 noundef 16, ptr noundef nonnull @.str.7) #11
  br label %31

31:                                               ; preds = %30, %thread_get_buffer_internal.exit
  %.0.i6 = phi i32 [ %.0.i7, %30 ], [ %.0.i, %thread_get_buffer_internal.exit ]
  ret i32 %.0.i6
}